; Function Attrs: nounwind uwtable
define hidden i32 @psa_mac_compute(i32 noundef %0, i32 noundef %1, ptr noundef readonly captures(none) %2, i64 noundef %3, ptr noundef writeonly %4, i64 noundef %5, ptr noundef %6) local_unnamed_addr #7 {
  %8 = icmp eq i64 %3, 0
  br i1 %8, label %13, label %9

9:                                                ; preds = %7
  %10 = tail call noalias ptr @calloc(i64 noundef %3, i64 noundef 1) #21
  %11 = icmp eq ptr %10, null
  br i1 %11, label %psa_crypto_local_output_free.exit.sink.split, label %12

12:                                               ; preds = %9
  tail call void @llvm.memcpy.p0.p0.i64(ptr noundef nonnull align 1 dereferenceable(1) %10, ptr noundef nonnull readonly align 1 dereferenceable(1) %2, i64 range(i64 1, 0) %3, i1 false)
  br label %13

13:                                               ; preds = %7, %12
  %.sroa.027.0.ph = phi ptr [ %10, %12 ], [ null, %7 ]
  %14 = icmp eq i64 %5, 0
  br i1 %14, label %psa_crypto_local_input_alloc.exit, label %15

15:                                               ; preds = %13
  %16 = tail call noalias ptr @calloc(i64 noundef %5, i64 noundef 1) #21
  %17 = icmp eq ptr %16, null
  br i1 %17, label %psa_crypto_local_output_free.exit.sink.split, label %psa_crypto_local_input_alloc.exit

psa_crypto_local_input_alloc.exit:                ; preds = %15, %13
  %.sroa.0.1.ph = phi ptr [ null, %13 ], [ %4, %15 ]
  %.sroa.6.1.ph = phi ptr [ null, %13 ], [ %16, %15 ]
  %18 = tail call fastcc i32 @psa_mac_compute_internal(i32 noundef %0, i32 noundef %1, ptr noundef %.sroa.027.0.ph, i64 noundef %3, ptr noundef %.sroa.6.1.ph, i64 noundef %5, ptr noundef %6, i32 noundef 1)
  tail call void @free(ptr noundef %.sroa.027.0.ph) #22
  %19 = icmp eq ptr %.sroa.6.1.ph, null
  br i1 %19, label %psa_crypto_local_output_free.exit, label %20

20:                                               ; preds = %psa_crypto_local_input_alloc.exit
  %21 = icmp eq ptr %.sroa.0.1.ph, null
  br i1 %21, label %psa_crypto_local_output_free.exit, label %22

22:                                               ; preds = %20
  br i1 %14, label %psa_crypto_local_output_free.exit.sink.split, label %23

23:                                               ; preds = %22
  tail call void @llvm.memcpy.p0.p0.i64(ptr nonnull align 1 %.sroa.0.1.ph, ptr nonnull readonly align 1 %.sroa.6.1.ph, i64 %5, i1 false)
  br label %psa_crypto_local_output_free.exit.sink.split

psa_crypto_local_output_free.exit.sink.split:     ; preds = %22, %23, %15, %9
  %.sroa.027.037.ph.sink = phi ptr [ %.sroa.027.0.ph, %15 ], [ null, %9 ], [ %.sroa.6.1.ph, %23 ], [ %.sroa.6.1.ph, %22 ]
  %.ph = phi i32 [ -141, %15 ], [ -141, %9 ], [ %18, %23 ], [ %18, %22 ]
  tail call void @free(ptr noundef %.sroa.027.037.ph.sink) #22
  br label %psa_crypto_local_output_free.exit

psa_crypto_local_output_free.exit:                ; preds = %psa_crypto_local_output_free.exit.sink.split, %psa_crypto_local_input_alloc.exit, %20
  %24 = phi i32 [ -151, %20 ], [ %18, %psa_crypto_local_input_alloc.exit ], [ %.ph, %psa_crypto_local_output_free.exit.sink.split ]
  ret i32 %24
}